target datalayout = "e-m:e-p270:32:32-p271:32:32-p272:64:64-i64:64-i128:128-f80:128-n8:16:32:64-S128"
target triple = "x86_64-pc-linux-gnu"

%struct._lv_msgbox_t = type { %struct._lv_obj_t, ptr, ptr, ptr, ptr }
%struct._lv_obj_t = type { ptr, ptr, ptr, ptr, ptr, %struct.lv_area_t, i32, i16, i16 }
%struct.lv_area_t = type { i32, i32, i32, i32 }

@lv_msgbox_header_class = constant { ptr, ptr, ptr, ptr, ptr, ptr, i32, i32, i8, i8, i8, [5 x i8] } { ptr @lv_obj_class, ptr null, ptr null, ptr null, ptr null, ptr @.str.1, i32 536871012, i32 43, i8 0, i8 4, i8 0, [5 x i8] zeroinitializer }, align 8

; Function Attrs: nounwind uwtable
define ptr @lv_msgbox_add_title(ptr noundef %0, ptr noundef %1) #0 {
  %3 = alloca ptr, align 8
  %4 = alloca ptr, align 8
  %5 = alloca ptr, align 8
  %6 = alloca ptr, align 8
  %7 = alloca i32, align 4
  store ptr %0, ptr %4, align 8, !tbaa !3
  store ptr %1, ptr %5, align 8, !tbaa !3
  call void @llvm.lifetime.start.p0(i64 8, ptr %6) #4
  %8 = load ptr, ptr %4, align 8, !tbaa !3
  store ptr %8, ptr %6, align 8, !tbaa !3
  %9 = load ptr, ptr %6, align 8, !tbaa !3
  %10 = getelementptr inbounds nuw %struct._lv_msgbox_t, ptr %9, i32 0, i32 1
  %11 = load ptr, ptr %10, align 8, !tbaa !17
  %12 = icmp eq ptr %11, null
  br i1 %12, label %13, label %59

13:                                               ; preds = %2
  %14 = load ptr, ptr %4, align 8, !tbaa !3
  %15 = call ptr @lv_obj_class_create_obj(ptr noundef @lv_msgbox_header_class, ptr noundef %14)
  %16 = load ptr, ptr %6, align 8, !tbaa !3
  %17 = getelementptr inbounds nuw %struct._lv_msgbox_t, ptr %16, i32 0, i32 1
  store ptr %15, ptr %17, align 8, !tbaa !17
  br label %18

18:                                               ; preds = %13
  %19 = load ptr, ptr %4, align 8, !tbaa !3
  %20 = icmp ne ptr %19, null
  br i1 %20, label %27, label %21

21:                                               ; preds = %18
  br label %22

22:                                               ; preds = %21
  br label %23

23:                                               ; preds = %22
  br label %24

24:                                               ; preds = %23
  br label %25

25:                                               ; preds = %26, %24
  br label %26

26:                                               ; preds = %25
  br label %25

27:                                               ; preds = %18
  br label %28

28:                                               ; preds = %27
  br label %29

29:                                               ; preds = %28
  %30 = load ptr, ptr %6, align 8, !tbaa !3
  %31 = getelementptr inbounds nuw %struct._lv_msgbox_t, ptr %30, i32 0, i32 1
  %32 = load ptr, ptr %31, align 8, !tbaa !17
  %33 = icmp eq ptr %32, null
  br i1 %33, label %34, label %35

34:                                               ; preds = %29
  store ptr null, ptr %3, align 8
  store i32 1, ptr %7, align 4
  br label %82

35:                                               ; preds = %29
  %36 = load ptr, ptr %6, align 8, !tbaa !3
  %37 = getelementptr inbounds nuw %struct._lv_msgbox_t, ptr %36, i32 0, i32 1
  %38 = load ptr, ptr %37, align 8, !tbaa !17
  call void @lv_obj_class_init_obj(ptr noundef %38)
  %39 = load ptr, ptr %6, align 8, !tbaa !3
  %40 = getelementptr inbounds nuw %struct._lv_msgbox_t, ptr %39, i32 0, i32 1
  %41 = load ptr, ptr %40, align 8, !tbaa !17
  %42 = call i32 @lv_pct(i32 noundef 100)
  %43 = load ptr, ptr %4, align 8, !tbaa !3
  %44 = call ptr @lv_obj_get_display(ptr noundef %43)
  %45 = call i32 @lv_display_get_dpi(ptr noundef %44)
  %46 = sdiv i32 %45, 3
  call void @lv_obj_set_size(ptr noundef %41, i32 noundef %42, i32 noundef %46)
  %47 = load ptr, ptr %6, align 8, !tbaa !3
  %48 = getelementptr inbounds nuw %struct._lv_msgbox_t, ptr %47, i32 0, i32 1
  %49 = load ptr, ptr %48, align 8, !tbaa !17
  call void @lv_obj_set_flex_flow(ptr noundef %49, i32 noundef 0)
  %50 = load ptr, ptr %6, align 8, !tbaa !3
  %51 = getelementptr inbounds nuw %struct._lv_msgbox_t, ptr %50, i32 0, i32 1
  %52 = load ptr, ptr %51, align 8, !tbaa !17
  call void @lv_obj_set_flex_align(ptr noundef %52, i32 noundef 0, i32 noundef 2, i32 noundef 2)
  %53 = load ptr, ptr %6, align 8, !tbaa !3
  %54 = getelementptr inbounds nuw %struct._lv_msgbox_t, ptr %53, i32 0, i32 1
  %55 = load ptr, ptr %54, align 8, !tbaa !17
  call void @lv_obj_remove_flag(ptr noundef %55, i32 noundef 16)
  %56 = load ptr, ptr %6, align 8, !tbaa !3
  %57 = getelementptr inbounds nuw %struct._lv_msgbox_t, ptr %56, i32 0, i32 1
  %58 = load ptr, ptr %57, align 8, !tbaa !17
  call void @lv_obj_move_to_index(ptr noundef %58, i32 noundef 0)
  br label %59

59:                                               ; preds = %35, %2
  %60 = load ptr, ptr %6, align 8, !tbaa !3
  %61 = getelementptr inbounds nuw %struct._lv_msgbox_t, ptr %60, i32 0, i32 4
  %62 = load ptr, ptr %61, align 8, !tbaa !18
  %63 = icmp eq ptr %62, null
  br i1 %63, label %64, label %74

64:                                               ; preds = %59
  %65 = load ptr, ptr %6, align 8, !tbaa !3
  %66 = getelementptr inbounds nuw %struct._lv_msgbox_t, ptr %65, i32 0, i32 1
  %67 = load ptr, ptr %66, align 8, !tbaa !17
  %68 = call ptr @lv_label_create(ptr noundef %67)
  %69 = load ptr, ptr %6, align 8, !tbaa !3
  %70 = getelementptr inbounds nuw %struct._lv_msgbox_t, ptr %69, i32 0, i32 4
  store ptr %68, ptr %70, align 8, !tbaa !18
  %71 = load ptr, ptr %6, align 8, !tbaa !3
  %72 = getelementptr inbounds nuw %struct._lv_msgbox_t, ptr %71, i32 0, i32 4
  %73 = load ptr, ptr %72, align 8, !tbaa !18
  call void @lv_obj_set_flex_grow(ptr noundef %73, i8 noundef zeroext 1)
  br label %74

74:                                               ; preds = %64, %59
  %75 = load ptr, ptr %6, align 8, !tbaa !3
  %76 = getelementptr inbounds nuw %struct._lv_msgbox_t, ptr %75, i32 0, i32 4
  %77 = load ptr, ptr %76, align 8, !tbaa !18
  %78 = load ptr, ptr %5, align 8, !tbaa !3
  call void @lv_label_set_text(ptr noundef %77, ptr noundef %78)
  %79 = load ptr, ptr %6, align 8, !tbaa !3
  %80 = getelementptr inbounds nuw %struct._lv_msgbox_t, ptr %79, i32 0, i32 4
  %81 = load ptr, ptr %80, align 8, !tbaa !18
  store ptr %81, ptr %3, align 8
  store i32 1, ptr %7, align 4
  br label %82

82:                                               ; preds = %74, %34
  call void @llvm.lifetime.end.p0(i64 8, ptr %6) #4
  %83 = load ptr, ptr %3, align 8
  ret ptr %83
}