; Function Attrs: nounwind uwtable
define ptr @lv_msgbox_add_title(ptr noundef %0, ptr noundef %1) local_unnamed_addr #0 {
  %3 = getelementptr inbounds nuw i8, ptr %0, i64 64
  %4 = load ptr, ptr %3, align 8, !tbaa !12
  %5 = icmp eq ptr %4, null
  br i1 %5, label %6, label %19

6:                                                ; preds = %2
  %7 = tail call ptr @lv_obj_class_create_obj(ptr noundef nonnull @lv_msgbox_header_class, ptr noundef nonnull %0) #3
  store ptr %7, ptr %3, align 8, !tbaa !12
  %8 = icmp eq ptr %7, null
  br i1 %8, label %29, label %9

9:                                                ; preds = %6
  tail call void @lv_obj_class_init_obj(ptr noundef nonnull %7) #3
  %10 = load ptr, ptr %3, align 8, !tbaa !12
  %11 = tail call i32 @lv_pct(i32 noundef 100) #3
  %12 = tail call ptr @lv_obj_get_display(ptr noundef nonnull %0) #3
  %13 = tail call i32 @lv_display_get_dpi(ptr noundef %12) #3
  %14 = sdiv i32 %13, 3
  tail call void @lv_obj_set_size(ptr noundef %10, i32 noundef %11, i32 noundef %14) #3
  %15 = load ptr, ptr %3, align 8, !tbaa !12
  tail call void @lv_obj_set_flex_flow(ptr noundef %15, i32 noundef 0) #3
  %16 = load ptr, ptr %3, align 8, !tbaa !12
  tail call void @lv_obj_set_flex_align(ptr noundef %16, i32 noundef 0, i32 noundef 2, i32 noundef 2) #3
  %17 = load ptr, ptr %3, align 8, !tbaa !12
  tail call void @lv_obj_remove_flag(ptr noundef %17, i32 noundef 16) #3
  %18 = load ptr, ptr %3, align 8, !tbaa !12
  tail call void @lv_obj_move_to_index(ptr noundef %18, i32 noundef 0) #3
  br label %19

19:                                               ; preds = %9, %2
  %20 = getelementptr inbounds nuw i8, ptr %0, i64 88
  %21 = load ptr, ptr %20, align 8, !tbaa !13
  %22 = icmp eq ptr %21, null
  br i1 %22, label %23, label %26

23:                                               ; preds = %19
  %24 = load ptr, ptr %3, align 8, !tbaa !12
  %25 = tail call ptr @lv_label_create(ptr noundef %24) #3
  store ptr %25, ptr %20, align 8, !tbaa !13
  tail call void @lv_obj_set_flex_grow(ptr noundef %25, i8 noundef zeroext 1) #3
  %.pre = load ptr, ptr %20, align 8, !tbaa !13
  br label %26

26:                                               ; preds = %23, %19
  %27 = phi ptr [ %.pre, %23 ], [ %21, %19 ]
  tail call void @lv_label_set_text(ptr noundef %27, ptr noundef %1) #3
  %28 = load ptr, ptr %20, align 8, !tbaa !13
  br label %29

29:                                               ; preds = %6, %26
  %.0 = phi ptr [ %28, %26 ], [ null, %6 ]
  ret ptr %.0
}